; Function Attrs: mustprogress uwtable
define void @_ZNK8QuantLib17StochasticProcess12stdDeviationEdRKNS_5ArrayEd(ptr dead_on_unwind noalias writable sret(%"class.QuantLib::Matrix") align 8 %agg.result, ptr noundef nonnull align 8 dereferenceable(128) %this, double noundef %t0, ptr noundef nonnull align 8 dereferenceable(16) %x0, double noundef %dt) unnamed_addr #7 align 2 {
entry:
  %discretization_ = getelementptr inbounds nuw i8, ptr %this, i64 112
  %0 = load ptr, ptr %discretization_, align 8, !tbaa !30
  %cmp.not.i = icmp eq ptr %0, null
  br i1 %cmp.not.i, label %cond.false.i, label %_ZNK5boost10shared_ptrIN8QuantLib17StochasticProcess14discretizationEEptEv.exit, !prof !34

cond.false.i:                                     ; preds = %entry
  tail call void @_ZN5boost16assertion_failedEPKcS1_S1_l(ptr noundef nonnull @.str.11, ptr noundef nonnull @__PRETTY_FUNCTION__._ZNK5boost10shared_ptrIN8QuantLib17StochasticProcess14discretizationEEptEv, ptr noundef nonnull @.str.12, i64 noundef 784)
  %.pre.i = load ptr, ptr %discretization_, align 8, !tbaa !30
  br label %_ZNK5boost10shared_ptrIN8QuantLib17StochasticProcess14discretizationEEptEv.exit

_ZNK5boost10shared_ptrIN8QuantLib17StochasticProcess14discretizationEEptEv.exit: ; preds = %entry, %cond.false.i
  %1 = phi ptr [ %0, %entry ], [ %.pre.i, %cond.false.i ]
  %vtable = load ptr, ptr %1, align 8, !tbaa !28
  %vfn = getelementptr inbounds i8, ptr %vtable, i64 24
  %2 = load ptr, ptr %vfn, align 8
  tail call void %2(ptr dead_on_unwind writable sret(%"class.QuantLib::Matrix") align 8 %agg.result, ptr noundef nonnull align 8 dereferenceable(8) %1, ptr noundef nonnull align 8 dereferenceable(128) %this, double noundef %t0, ptr noundef nonnull align 8 dereferenceable(16) %x0, double noundef %dt)
  ret void
}